; Function Attrs: mustprogress uwtable
define void @_ZNK2cv3dnn14dnn4_v202412233Net4Impl7getBlobENSt7__cxx1112basic_stringIcSt11char_traitsIcESaIcEEE(ptr dead_on_unwind noalias writable sret(%"class.cv::Mat") align 8 %0, ptr noundef nonnull align 8 dereferenceable(504) %1, ptr noundef nonnull %2) local_unnamed_addr #3 align 2 {
  %4 = alloca %"struct.cv::dnn::dnn4_v20241223::detail::LayerPin", align 8
  call void @llvm.lifetime.start.p0(i64 8, ptr nonnull %4) #35
  %5 = tail call i64 @_ZNK2cv3dnn14dnn4_v202412233Net4Impl13getPinByAliasERKNSt7__cxx1112basic_stringIcSt11char_traitsIcESaIcEEE(ptr noundef nonnull align 8 dereferenceable(504) %1, ptr noundef nonnull align 8 dereferenceable(32) %2)
  store i64 %5, ptr %4, align 8
  call void @_ZNK2cv3dnn14dnn4_v202412233Net4Impl7getBlobERKNS1_6detail8LayerPinE(ptr dead_on_unwind writable sret(%"class.cv::Mat") align 8 %0, ptr noundef nonnull align 8 dereferenceable(504) %1, ptr noundef nonnull align 4 dereferenceable(8) %4)
  call void @llvm.lifetime.end.p0(i64 8, ptr nonnull %4) #35
  ret void
}